target datalayout = "e-m:e-p270:32:32-p271:32:32-p272:64:64-i64:64-i128:128-f80:128-n8:16:32:64-S128"
target triple = "x86_64-pc-linux-gnu"

%struct.buftag = type { i32, i32, i32, i32, i32 }
%struct.RelFileLocator = type { i32, i32, i32 }
%struct.LWLock = type { i16, %struct.pg_atomic_uint32, %struct.proclist_head }
%struct.pg_atomic_uint32 = type { i32 }
%struct.proclist_head = type { i32, i32 }
%struct.BufferDesc = type { %struct.buftag, i32, %struct.pg_atomic_uint32, i32, i32, %struct.LWLock }

@.str.18 = private unnamed_addr constant [32 x i8] c"writing block %u of relation %s\00", align 1

; Function Attrs: inlinehint nounwind uwtable
define internal i32 @BufTagGetRelNumber(ptr noundef %0) #3 {
  %2 = alloca ptr, align 8
  store ptr %0, ptr %2, align 8
  %3 = load ptr, ptr %2, align 8
  %4 = getelementptr inbounds nuw %struct.buftag, ptr %3, i32 0, i32 2
  %5 = load i32, ptr %4, align 4
  ret i32 %5
}

; Function Attrs: inlinehint nounwind uwtable
define internal i32 @BufTagGetForkNum(ptr noundef %0) #3 {
  %2 = alloca ptr, align 8
  store ptr %0, ptr %2, align 8
  %3 = load ptr, ptr %2, align 8
  %4 = getelementptr inbounds nuw %struct.buftag, ptr %3, i32 0, i32 3
  %5 = load i32, ptr %4, align 4
  ret i32 %5
}

; Function Attrs: inlinehint nounwind uwtable
define internal { i64, i32 } @BufTagGetRelFileLocator(ptr noundef %0) #3 {
  %2 = alloca %struct.RelFileLocator, align 4
  %3 = alloca ptr, align 8
  %4 = alloca { i64, i32 }, align 8
  store ptr %0, ptr %3, align 8
  %5 = load ptr, ptr %3, align 8
  %6 = getelementptr inbounds nuw %struct.buftag, ptr %5, i32 0, i32 0
  %7 = load i32, ptr %6, align 4
  %8 = getelementptr inbounds nuw %struct.RelFileLocator, ptr %2, i32 0, i32 0
  store i32 %7, ptr %8, align 4
  %9 = load ptr, ptr %3, align 8
  %10 = getelementptr inbounds nuw %struct.buftag, ptr %9, i32 0, i32 1
  %11 = load i32, ptr %10, align 4
  %12 = getelementptr inbounds nuw %struct.RelFileLocator, ptr %2, i32 0, i32 1
  store i32 %11, ptr %12, align 4
  %13 = load ptr, ptr %3, align 8
  %14 = call i32 @BufTagGetRelNumber(ptr noundef %13)
  %15 = getelementptr inbounds nuw %struct.RelFileLocator, ptr %2, i32 0, i32 2
  store i32 %14, ptr %15, align 4
  call void @llvm.memcpy.p0.p0.i64(ptr align 8 %4, ptr align 4 %2, i64 12, i1 false)
  %16 = load { i64, i32 }, ptr %4, align 8
  ret { i64, i32 } %16
}

; Function Attrs: nounwind uwtable
define internal void @shared_buffer_write_error_callback(ptr noundef %0) #0 {
  %2 = alloca ptr, align 8
  %3 = alloca ptr, align 8
  %4 = alloca ptr, align 8
  %5 = alloca %struct.RelFileLocator, align 4
  %6 = alloca { i64, i32 }, align 8
  %7 = alloca %struct.RelFileLocator, align 4
  %8 = alloca { i64, i32 }, align 8
  %9 = alloca %struct.RelFileLocator, align 4
  %10 = alloca { i64, i32 }, align 8
  store ptr %0, ptr %2, align 8
  call void @llvm.lifetime.start.p0(i64 8, ptr %3) #10
  %11 = load ptr, ptr %2, align 8
  store ptr %11, ptr %3, align 8
  %12 = load ptr, ptr %3, align 8
  %13 = icmp ne ptr %12, null
  br i1 %13, label %14, label %42

14:                                               ; preds = %1
  call void @llvm.lifetime.start.p0(i64 8, ptr %4) #10
  %15 = load ptr, ptr %3, align 8
  %16 = getelementptr inbounds nuw %struct.BufferDesc, ptr %15, i32 0, i32 0
  %17 = call { i64, i32 } @BufTagGetRelFileLocator(ptr noundef %16)
  store { i64, i32 } %17, ptr %6, align 8
  call void @llvm.memcpy.p0.p0.i64(ptr align 4 %5, ptr align 8 %6, i64 12, i1 false)
  %18 = getelementptr inbounds nuw %struct.RelFileLocator, ptr %5, i32 0, i32 1
  %19 = load i32, ptr %18, align 4
  %20 = load ptr, ptr %3, align 8
  %21 = getelementptr inbounds nuw %struct.BufferDesc, ptr %20, i32 0, i32 0
  %22 = call { i64, i32 } @BufTagGetRelFileLocator(ptr noundef %21)
  store { i64, i32 } %22, ptr %8, align 8
  call void @llvm.memcpy.p0.p0.i64(ptr align 4 %7, ptr align 8 %8, i64 12, i1 false)
  %23 = getelementptr inbounds nuw %struct.RelFileLocator, ptr %7, i32 0, i32 0
  %24 = load i32, ptr %23, align 4
  %25 = load ptr, ptr %3, align 8
  %26 = getelementptr inbounds nuw %struct.BufferDesc, ptr %25, i32 0, i32 0
  %27 = call { i64, i32 } @BufTagGetRelFileLocator(ptr noundef %26)
  store { i64, i32 } %27, ptr %10, align 8
  call void @llvm.memcpy.p0.p0.i64(ptr align 4 %9, ptr align 8 %10, i64 12, i1 false)
  %28 = getelementptr inbounds nuw %struct.RelFileLocator, ptr %9, i32 0, i32 2
  %29 = load i32, ptr %28, align 4
  %30 = load ptr, ptr %3, align 8
  %31 = getelementptr inbounds nuw %struct.BufferDesc, ptr %30, i32 0, i32 0
  %32 = call i32 @BufTagGetForkNum(ptr noundef %31)
  %33 = call ptr @GetRelationPath(i32 noundef %19, i32 noundef %24, i32 noundef %29, i32 noundef -1, i32 noundef %32)
  store ptr %33, ptr %4, align 8
  %34 = call i32 @set_errcontext_domain(ptr noundef null)
  %35 = load ptr, ptr %3, align 8
  %36 = getelementptr inbounds nuw %struct.BufferDesc, ptr %35, i32 0, i32 0
  %37 = getelementptr inbounds nuw %struct.buftag, ptr %36, i32 0, i32 4
  %38 = load i32, ptr %37, align 4
  %39 = load ptr, ptr %4, align 8
  %40 = call i32 (ptr, ...) @errcontext_msg(ptr noundef @.str.18, i32 noundef %38, ptr noundef %39)
  %41 = load ptr, ptr %4, align 8
  call void @pfree(ptr noundef %41)
  call void @llvm.lifetime.end.p0(i64 8, ptr %4) #10
  br label %42

42:                                               ; preds = %14, %1
  call void @llvm.lifetime.end.p0(i64 8, ptr %3) #10
  ret void
}